; Function Attrs: mustprogress nounwind uwtable
define internal fastcc void @_ZN6hermes12_GLOBAL__N_15GenJS5visitEPNS_6ESTree18ForOfStatementNodeE(ptr noundef nonnull align 8 captures(none) dereferenceable(16) %this, ptr noundef readonly captures(none) %node) unnamed_addr #0 align 2 {
entry:
  %_left = getelementptr inbounds nuw i8, ptr %node, i64 56
  %0 = load ptr, ptr %_left, align 8
  %_right = getelementptr inbounds nuw i8, ptr %node, i64 64
  %1 = load ptr, ptr %_right, align 8
  %_body = getelementptr inbounds nuw i8, ptr %node, i64 72
  %2 = load ptr, ptr %_body, align 8
  %3 = load ptr, ptr %this, align 8
  %OutBufEnd.i5.i = getelementptr inbounds nuw i8, ptr %3, i64 16
  %4 = load ptr, ptr %OutBufEnd.i5.i, align 8
  %OutBufCur.i6.i = getelementptr inbounds nuw i8, ptr %3, i64 24
  %5 = load ptr, ptr %OutBufCur.i6.i, align 8
  %sub.ptr.lhs.cast.i7.i = ptrtoint ptr %4 to i64
  %sub.ptr.rhs.cast.i8.i = ptrtoint ptr %5 to i64
  %sub.ptr.sub.i9.i = sub i64 %sub.ptr.lhs.cast.i7.i, %sub.ptr.rhs.cast.i8.i
  %cmp.i.i = icmp ult i64 %sub.ptr.sub.i9.i, 4
  br i1 %cmp.i.i, label %if.then.i.i, label %if.then4.i.i

if.then.i.i:                                      ; preds = %entry
  %call3.i.i = tail call noundef nonnull align 8 dereferenceable(36) ptr @_ZN4llvh11raw_ostream5writeEPKcm(ptr noundef nonnull align 8 dereferenceable(36) %3, ptr noundef nonnull @.str.274, i64 noundef 4) #12
  br label %_ZN4llvh11raw_ostreamlsEPKc.exit

if.then4.i.i:                                     ; preds = %entry
  store i32 678588262, ptr %5, align 1
  %6 = load ptr, ptr %OutBufCur.i6.i, align 8
  %add.ptr.i.i = getelementptr inbounds nuw i8, ptr %6, i64 4
  store ptr %add.ptr.i.i, ptr %OutBufCur.i6.i, align 8
  br label %_ZN4llvh11raw_ostreamlsEPKc.exit

_ZN4llvh11raw_ostreamlsEPKc.exit:                 ; preds = %if.then.i.i, %if.then4.i.i
  tail call fastcc void @_ZN6hermes6ESTree24RecursiveVisitorDispatchINS_12_GLOBAL__N_15GenJSELb1EE5visitERS3_PNS0_4NodeES7_(ptr noundef nonnull align 8 dereferenceable(16) %this, ptr noundef %0)
  %7 = load ptr, ptr %this, align 8
  %OutBufCur.i23 = getelementptr inbounds nuw i8, ptr %7, i64 24
  %8 = load ptr, ptr %OutBufCur.i23, align 8
  %OutBufEnd.i24 = getelementptr inbounds nuw i8, ptr %7, i64 16
  %9 = load ptr, ptr %OutBufEnd.i24, align 8
  %cmp.not.i25 = icmp ult ptr %8, %9
  br i1 %cmp.not.i25, label %if.end.i29, label %if.then.i26

if.then.i26:                                      ; preds = %_ZN4llvh11raw_ostreamlsEPKc.exit
  %call.i27 = tail call noundef nonnull align 8 dereferenceable(36) ptr @_ZN4llvh11raw_ostream5writeEh(ptr noundef nonnull align 8 dereferenceable(36) %7, i8 noundef zeroext 32) #12
  br label %_ZN4llvh11raw_ostreamlsEc.exit31

if.end.i29:                                       ; preds = %_ZN4llvh11raw_ostreamlsEPKc.exit
  %incdec.ptr.i30 = getelementptr inbounds nuw i8, ptr %8, i64 1
  store ptr %incdec.ptr.i30, ptr %OutBufCur.i23, align 8
  store i8 32, ptr %8, align 1
  br label %_ZN4llvh11raw_ostreamlsEc.exit31

_ZN4llvh11raw_ostreamlsEc.exit31:                 ; preds = %if.then.i26, %if.end.i29
  %retval.0.i28 = phi ptr [ %call.i27, %if.then.i26 ], [ %7, %if.end.i29 ]
  %OutBufEnd.i17 = getelementptr inbounds nuw i8, ptr %retval.0.i28, i64 16
  %10 = load ptr, ptr %OutBufEnd.i17, align 8
  %OutBufCur.i18 = getelementptr inbounds nuw i8, ptr %retval.0.i28, i64 24
  %11 = load ptr, ptr %OutBufCur.i18, align 8
  %sub.ptr.lhs.cast.i = ptrtoint ptr %10 to i64
  %sub.ptr.rhs.cast.i = ptrtoint ptr %11 to i64
  %sub.ptr.sub.i = sub i64 %sub.ptr.lhs.cast.i, %sub.ptr.rhs.cast.i
  %cmp.i = icmp ult i64 %sub.ptr.sub.i, 2
  br i1 %cmp.i, label %if.then.i21, label %if.end.i19

if.then.i21:                                      ; preds = %_ZN4llvh11raw_ostreamlsEc.exit31
  %call3.i22 = tail call noundef nonnull align 8 dereferenceable(36) ptr @_ZN4llvh11raw_ostream5writeEPKcm(ptr noundef nonnull align 8 dereferenceable(36) %retval.0.i28, ptr noundef nonnull @.str.275, i64 noundef 2) #12
  %OutBufCur.i8.phi.trans.insert = getelementptr inbounds nuw i8, ptr %call3.i22, i64 24
  %.pre = load ptr, ptr %OutBufCur.i8.phi.trans.insert, align 8
  br label %_ZN4llvh11raw_ostreamlsENS_9StringRefE.exit

if.end.i19:                                       ; preds = %_ZN4llvh11raw_ostreamlsEc.exit31
  store i16 26223, ptr %11, align 1
  %12 = load ptr, ptr %OutBufCur.i18, align 8
  %add.ptr.i = getelementptr inbounds nuw i8, ptr %12, i64 2
  store ptr %add.ptr.i, ptr %OutBufCur.i18, align 8
  br label %_ZN4llvh11raw_ostreamlsENS_9StringRefE.exit

_ZN4llvh11raw_ostreamlsENS_9StringRefE.exit:      ; preds = %if.then.i21, %if.end.i19
  %13 = phi ptr [ %.pre, %if.then.i21 ], [ %add.ptr.i, %if.end.i19 ]
  %retval.0.i20 = phi ptr [ %call3.i22, %if.then.i21 ], [ %retval.0.i28, %if.end.i19 ]
  %OutBufEnd.i9 = getelementptr inbounds nuw i8, ptr %retval.0.i20, i64 16
  %14 = load ptr, ptr %OutBufEnd.i9, align 8
  %cmp.not.i10 = icmp ult ptr %13, %14
  br i1 %cmp.not.i10, label %if.end.i14, label %if.then.i11

if.then.i11:                                      ; preds = %_ZN4llvh11raw_ostreamlsENS_9StringRefE.exit
  %call.i12 = tail call noundef nonnull align 8 dereferenceable(36) ptr @_ZN4llvh11raw_ostream5writeEh(ptr noundef nonnull align 8 dereferenceable(36) %retval.0.i20, i8 noundef zeroext 32) #12
  br label %_ZN4llvh11raw_ostreamlsEc.exit16

if.end.i14:                                       ; preds = %_ZN4llvh11raw_ostreamlsENS_9StringRefE.exit
  %OutBufCur.i8 = getelementptr inbounds nuw i8, ptr %retval.0.i20, i64 24
  %incdec.ptr.i15 = getelementptr inbounds nuw i8, ptr %13, i64 1
  store ptr %incdec.ptr.i15, ptr %OutBufCur.i8, align 8
  store i8 32, ptr %13, align 1
  br label %_ZN4llvh11raw_ostreamlsEc.exit16

_ZN4llvh11raw_ostreamlsEc.exit16:                 ; preds = %if.then.i11, %if.end.i14
  tail call fastcc void @_ZN6hermes6ESTree24RecursiveVisitorDispatchINS_12_GLOBAL__N_15GenJSELb1EE5visitERS3_PNS0_4NodeES7_(ptr noundef nonnull align 8 dereferenceable(16) %this, ptr noundef %1)
  %15 = load ptr, ptr %this, align 8
  %OutBufCur.i = getelementptr inbounds nuw i8, ptr %15, i64 24
  %16 = load ptr, ptr %OutBufCur.i, align 8
  %OutBufEnd.i = getelementptr inbounds nuw i8, ptr %15, i64 16
  %17 = load ptr, ptr %OutBufEnd.i, align 8
  %cmp.not.i = icmp ult ptr %16, %17
  br i1 %cmp.not.i, label %if.end.i, label %if.then.i

if.then.i:                                        ; preds = %_ZN4llvh11raw_ostreamlsEc.exit16
  %call.i6 = tail call noundef nonnull align 8 dereferenceable(36) ptr @_ZN4llvh11raw_ostream5writeEh(ptr noundef nonnull align 8 dereferenceable(36) %15, i8 noundef zeroext 41) #12
  br label %_ZN4llvh11raw_ostreamlsEc.exit

if.end.i:                                         ; preds = %_ZN4llvh11raw_ostreamlsEc.exit16
  %incdec.ptr.i = getelementptr inbounds nuw i8, ptr %16, i64 1
  store ptr %incdec.ptr.i, ptr %OutBufCur.i, align 8
  store i8 41, ptr %16, align 1
  br label %_ZN4llvh11raw_ostreamlsEc.exit

_ZN4llvh11raw_ostreamlsEc.exit:                   ; preds = %if.then.i, %if.end.i
  %18 = tail call fastcc noundef zeroext i1 @_ZN6hermes12_GLOBAL__N_15GenJS16visitStmtOrBlockEPNS_6ESTree4NodeEbS4_(ptr noundef nonnull align 8 dereferenceable(16) %this, ptr noundef %2, i1 noundef zeroext false)
  ret void
}